target datalayout = "e-m:e-p270:32:32-p271:32:32-p272:64:64-i64:64-i128:128-f80:128-n8:16:32:64-S128"
target triple = "x86_64-pc-linux-gnu"

%"class.icu_77::UnicodeString" = type { %"class.icu_77::Replaceable", %"union.icu_77::UnicodeString::StackBufferOrFields" }
%"class.icu_77::Replaceable" = type { %"class.icu_77::UObject" }
%"class.icu_77::UObject" = type { ptr }
%"union.icu_77::UnicodeString::StackBufferOrFields" = type { %struct.anon.0, [32 x i8] }
%struct.anon.0 = type { i16, i32, i32, ptr }
%struct.anon = type { i16, [27 x i16] }

@_ZN6icu_77L15ALT_GMT_STRINGSE = internal constant [4 x [4 x i16]] [[4 x i16] [i16 71, i16 77, i16 84, i16 0], [4 x i16] [i16 85, i16 84, i16 67, i16 0], [4 x i16] [i16 85, i16 84, i16 0, i16 0], [4 x i16] zeroinitializer], align 16

; Function Attrs: inlinehint mustprogress nounwind uwtable
define linkonce_odr noundef ptr @_ZNK6icu_7713UnicodeString13getArrayStartEv(ptr noundef nonnull align 8 dereferenceable(64) %0) #2 comdat align 2 {
  %2 = alloca ptr, align 8
  store ptr %0, ptr %2, align 8, !tbaa !33
  %3 = load ptr, ptr %2, align 8
  %4 = getelementptr inbounds nuw %"class.icu_77::UnicodeString", ptr %3, i32 0, i32 1
  %5 = getelementptr inbounds nuw %struct.anon.0, ptr %4, i32 0, i32 0
  %6 = load i16, ptr %5, align 8, !tbaa !37
  %7 = sext i16 %6 to i32
  %8 = and i32 %7, 2
  %9 = icmp ne i32 %8, 0
  br i1 %9, label %10, label %14

10:                                               ; preds = %1
  %11 = getelementptr inbounds nuw %"class.icu_77::UnicodeString", ptr %3, i32 0, i32 1
  %12 = getelementptr inbounds nuw %struct.anon, ptr %11, i32 0, i32 1
  %13 = getelementptr inbounds [27 x i16], ptr %12, i64 0, i64 0
  br label %18

14:                                               ; preds = %1
  %15 = getelementptr inbounds nuw %"class.icu_77::UnicodeString", ptr %3, i32 0, i32 1
  %16 = getelementptr inbounds nuw %struct.anon.0, ptr %15, i32 0, i32 3
  %17 = load ptr, ptr %16, align 8, !tbaa !37
  br label %18

18:                                               ; preds = %14, %10
  %19 = phi ptr [ %13, %10 ], [ %17, %14 ]
  ret ptr %19
}

; Function Attrs: inlinehint mustprogress uwtable
define linkonce_odr noundef zeroext i16 @_ZNK6icu_7713UnicodeString8doCharAtEi(ptr noundef nonnull align 8 dereferenceable(64) %0, i32 noundef %1) #3 comdat align 2 {
  %3 = alloca i16, align 2
  %4 = alloca ptr, align 8
  %5 = alloca i32, align 4
  store ptr %0, ptr %4, align 8, !tbaa !33
  store i32 %1, ptr %5, align 4, !tbaa !14
  %6 = load ptr, ptr %4, align 8
  %7 = load i32, ptr %5, align 4, !tbaa !14
  %8 = call noundef i32 @_ZNK6icu_7713UnicodeString6lengthEv(ptr noundef nonnull align 8 dereferenceable(64) %6)
  %9 = icmp ult i32 %7, %8
  br i1 %9, label %10, label %16

10:                                               ; preds = %2
  %11 = call noundef ptr @_ZNK6icu_7713UnicodeString13getArrayStartEv(ptr noundef nonnull align 8 dereferenceable(64) %6)
  %12 = load i32, ptr %5, align 4, !tbaa !14
  %13 = sext i32 %12 to i64
  %14 = getelementptr inbounds i16, ptr %11, i64 %13
  %15 = load i16, ptr %14, align 2, !tbaa !35
  store i16 %15, ptr %3, align 2
  br label %17

16:                                               ; preds = %2
  store i16 -1, ptr %3, align 2
  br label %17

17:                                               ; preds = %16, %10
  %18 = load i16, ptr %3, align 2
  ret i16 %18
}

; Function Attrs: inlinehint mustprogress nounwind uwtable
define linkonce_odr noundef i32 @_ZNK6icu_7713UnicodeString14getShortLengthEv(ptr noundef nonnull align 8 dereferenceable(64) %0) #2 comdat align 2 {
  %2 = alloca ptr, align 8
  store ptr %0, ptr %2, align 8, !tbaa !33
  %3 = load ptr, ptr %2, align 8
  %4 = getelementptr inbounds nuw %"class.icu_77::UnicodeString", ptr %3, i32 0, i32 1
  %5 = getelementptr inbounds nuw %struct.anon.0, ptr %4, i32 0, i32 0
  %6 = load i16, ptr %5, align 8, !tbaa !37
  %7 = sext i16 %6 to i32
  %8 = ashr i32 %7, 5
  ret i32 %8
}

; Function Attrs: inlinehint mustprogress nounwind uwtable
define linkonce_odr noundef signext i8 @_ZNK6icu_7713UnicodeString14hasShortLengthEv(ptr noundef nonnull align 8 dereferenceable(64) %0) #2 comdat align 2 {
  %2 = alloca ptr, align 8
  store ptr %0, ptr %2, align 8, !tbaa !33
  %3 = load ptr, ptr %2, align 8
  %4 = getelementptr inbounds nuw %"class.icu_77::UnicodeString", ptr %3, i32 0, i32 1
  %5 = getelementptr inbounds nuw %struct.anon.0, ptr %4, i32 0, i32 0
  %6 = load i16, ptr %5, align 8, !tbaa !37
  %7 = sext i16 %6 to i32
  %8 = icmp sge i32 %7, 0
  %9 = zext i1 %8 to i8
  ret i8 %9
}

; Function Attrs: inlinehint mustprogress uwtable
define linkonce_odr noundef zeroext i16 @_ZNK6icu_7713UnicodeString6charAtEi(ptr noundef nonnull align 8 dereferenceable(64) %0, i32 noundef %1) #3 comdat align 2 {
  %3 = alloca ptr, align 8
  %4 = alloca i32, align 4
  store ptr %0, ptr %3, align 8, !tbaa !33
  store i32 %1, ptr %4, align 4, !tbaa !14
  %5 = load ptr, ptr %3, align 8
  %6 = load i32, ptr %4, align 4, !tbaa !14
  %7 = call noundef zeroext i16 @_ZNK6icu_7713UnicodeString8doCharAtEi(ptr noundef nonnull align 8 dereferenceable(64) %5, i32 noundef %6)
  ret i16 %7
}

; Function Attrs: inlinehint mustprogress uwtable
define linkonce_odr noundef i32 @_ZNK6icu_7713UnicodeString6lengthEv(ptr noundef nonnull align 8 dereferenceable(64) %0) #3 comdat align 2 {
  %2 = alloca ptr, align 8
  store ptr %0, ptr %2, align 8, !tbaa !33
  %3 = load ptr, ptr %2, align 8
  %4 = call noundef signext i8 @_ZNK6icu_7713UnicodeString14hasShortLengthEv(ptr noundef nonnull align 8 dereferenceable(64) %3)
  %5 = icmp ne i8 %4, 0
  br i1 %5, label %6, label %8

6:                                                ; preds = %1
  %7 = call noundef i32 @_ZNK6icu_7713UnicodeString14getShortLengthEv(ptr noundef nonnull align 8 dereferenceable(64) %3)
  br label %12

8:                                                ; preds = %1
  %9 = getelementptr inbounds nuw %"class.icu_77::UnicodeString", ptr %3, i32 0, i32 1
  %10 = getelementptr inbounds nuw %struct.anon.0, ptr %9, i32 0, i32 1
  %11 = load i32, ptr %10, align 4, !tbaa !37
  br label %12

12:                                               ; preds = %8, %6
  %13 = phi i32 [ %7, %6 ], [ %11, %8 ]
  ret i32 %13
}

; Function Attrs: inlinehint mustprogress uwtable
define linkonce_odr noundef signext i8 @_ZNK6icu_7713UnicodeString11caseCompareEiiPKDsj(ptr noundef nonnull align 8 dereferenceable(64) %0, i32 noundef %1, i32 noundef %2, ptr noundef %3, i32 noundef %4) #3 comdat align 2 {
  %6 = alloca ptr, align 8
  %7 = alloca i32, align 4
  %8 = alloca i32, align 4
  %9 = alloca ptr, align 8
  %10 = alloca i32, align 4
  store ptr %0, ptr %6, align 8, !tbaa !33
  store i32 %1, ptr %7, align 4, !tbaa !14
  store i32 %2, ptr %8, align 4, !tbaa !14
  store ptr %3, ptr %9, align 8, !tbaa !61
  store i32 %4, ptr %10, align 4, !tbaa !14
  %11 = load ptr, ptr %6, align 8
  %12 = load i32, ptr %7, align 4, !tbaa !14
  %13 = load i32, ptr %8, align 4, !tbaa !14
  %14 = load ptr, ptr %9, align 8, !tbaa !61
  %15 = load i32, ptr %8, align 4, !tbaa !14
  %16 = load i32, ptr %10, align 4, !tbaa !14
  %17 = call noundef signext i8 @_ZNK6icu_7713UnicodeString13doCaseCompareEiiPKDsiij(ptr noundef nonnull align 8 dereferenceable(64) %11, i32 noundef %12, i32 noundef %13, ptr noundef %14, i32 noundef 0, i32 noundef %15, i32 noundef %16)
  ret i8 %17
}

; Function Attrs: mustprogress uwtable
define noundef i32 @_ZNK6icu_7714TimeZoneFormat30parseOffsetDefaultLocalizedGMTERKNS_13UnicodeStringEiRi(ptr noundef nonnull align 8 dereferenceable(1024) %0, ptr noundef nonnull align 8 dereferenceable(64) %1, i32 noundef %2, ptr noundef nonnull align 4 dereferenceable(4) %3) #1 align 2 {
  %5 = alloca ptr, align 8
  %6 = alloca ptr, align 8
  %7 = alloca i32, align 4
  %8 = alloca ptr, align 8
  %9 = alloca i32, align 4
  %10 = alloca i32, align 4
  %11 = alloca i32, align 4
  %12 = alloca i32, align 4
  %13 = alloca i32, align 4
  %14 = alloca i32, align 4
  %15 = alloca ptr, align 8
  %16 = alloca i32, align 4
  %17 = alloca i32, align 4
  %18 = alloca i16, align 2
  %19 = alloca i32, align 4
  %20 = alloca i32, align 4
  %21 = alloca i32, align 4
  %22 = alloca i32, align 4
  store ptr %0, ptr %5, align 8, !tbaa !39
  store ptr %1, ptr %6, align 8, !tbaa !33
  store i32 %2, ptr %7, align 4, !tbaa !14
  store ptr %3, ptr %8, align 8, !tbaa !20
  %23 = load ptr, ptr %5, align 8
  call void @llvm.lifetime.start.p0(i64 4, ptr %9) #15
  %24 = load i32, ptr %7, align 4, !tbaa !14
  store i32 %24, ptr %9, align 4, !tbaa !14
  call void @llvm.lifetime.start.p0(i64 4, ptr %10) #15
  store i32 0, ptr %10, align 4, !tbaa !14
  call void @llvm.lifetime.start.p0(i64 4, ptr %11) #15
  store i32 0, ptr %11, align 4, !tbaa !14
  br label %25

25:                                               ; preds = %4
  call void @llvm.lifetime.start.p0(i64 4, ptr %12) #15
  store i32 0, ptr %12, align 4, !tbaa !14
  call void @llvm.lifetime.start.p0(i64 4, ptr %13) #15
  store i32 0, ptr %13, align 4, !tbaa !14
  br label %26

26:                                               ; preds = %55, %25
  %27 = load i32, ptr %13, align 4, !tbaa !14
  %28 = sext i32 %27 to i64
  %29 = getelementptr inbounds [4 x [4 x i16]], ptr @_ZN6icu_77L15ALT_GMT_STRINGSE, i64 0, i64 %28
  %30 = getelementptr inbounds [4 x i16], ptr %29, i64 0, i64 0
  %31 = load i16, ptr %30, align 8, !tbaa !35
  %32 = zext i16 %31 to i32
  %33 = icmp ne i32 %32, 0
  br i1 %33, label %35, label %34

34:                                               ; preds = %26
  store i32 4, ptr %14, align 4
  br label %58

35:                                               ; preds = %26
  call void @llvm.lifetime.start.p0(i64 8, ptr %15) #15
  %36 = load i32, ptr %13, align 4, !tbaa !14
  %37 = sext i32 %36 to i64
  %38 = getelementptr inbounds [4 x [4 x i16]], ptr @_ZN6icu_77L15ALT_GMT_STRINGSE, i64 0, i64 %37
  %39 = getelementptr inbounds [4 x i16], ptr %38, i64 0, i64 0
  store ptr %39, ptr %15, align 8, !tbaa !61
  call void @llvm.lifetime.start.p0(i64 4, ptr %16) #15
  %40 = load ptr, ptr %15, align 8, !tbaa !61
  %41 = call i32 @u_strlen_77(ptr noundef %40)
  store i32 %41, ptr %16, align 4, !tbaa !14
  %42 = load ptr, ptr %6, align 8, !tbaa !33
  %43 = load i32, ptr %7, align 4, !tbaa !14
  %44 = load i32, ptr %16, align 4, !tbaa !14
  %45 = load ptr, ptr %15, align 8, !tbaa !61
  %46 = call noundef signext i8 @_ZNK6icu_7713UnicodeString11caseCompareEiiPKDsj(ptr noundef nonnull align 8 dereferenceable(64) %42, i32 noundef %43, i32 noundef %44, ptr noundef %45, i32 noundef 0)
  %47 = sext i8 %46 to i32
  %48 = icmp eq i32 %47, 0
  br i1 %48, label %49, label %51

49:                                               ; preds = %35
  %50 = load i32, ptr %16, align 4, !tbaa !14
  store i32 %50, ptr %12, align 4, !tbaa !14
  store i32 4, ptr %14, align 4
  br label %52

51:                                               ; preds = %35
  store i32 0, ptr %14, align 4
  br label %52

52:                                               ; preds = %51, %49
  call void @llvm.lifetime.end.p0(i64 4, ptr %16) #15
  call void @llvm.lifetime.end.p0(i64 8, ptr %15) #15
  %53 = load i32, ptr %14, align 4
  switch i32 %53, label %58 [
    i32 0, label %54
  ]

54:                                               ; preds = %52
  br label %55

55:                                               ; preds = %54
  %56 = load i32, ptr %13, align 4, !tbaa !14
  %57 = add nsw i32 %56, 1
  store i32 %57, ptr %13, align 4, !tbaa !14
  br label %26, !llvm.loop !154

58:                                               ; preds = %52, %34
  call void @llvm.lifetime.end.p0(i64 4, ptr %13) #15
  br label %59

59:                                               ; preds = %58
  %60 = load i32, ptr %12, align 4, !tbaa !14
  %61 = icmp eq i32 %60, 0
  br i1 %61, label %62, label %63

62:                                               ; preds = %59
  store i32 2, ptr %14, align 4
  br label %134

63:                                               ; preds = %59
  %64 = load i32, ptr %12, align 4, !tbaa !14
  %65 = load i32, ptr %9, align 4, !tbaa !14
  %66 = add nsw i32 %65, %64
  store i32 %66, ptr %9, align 4, !tbaa !14
  %67 = load i32, ptr %9, align 4, !tbaa !14
  %68 = add nsw i32 %67, 1
  %69 = load ptr, ptr %6, align 8, !tbaa !33
  %70 = call noundef i32 @_ZNK6icu_7713UnicodeString6lengthEv(ptr noundef nonnull align 8 dereferenceable(64) %69)
  %71 = icmp sge i32 %68, %70
  br i1 %71, label %72, label %73

72:                                               ; preds = %63
  store i32 2, ptr %14, align 4
  br label %134

73:                                               ; preds = %63
  call void @llvm.lifetime.start.p0(i64 4, ptr %17) #15
  store i32 1, ptr %17, align 4, !tbaa !14
  call void @llvm.lifetime.start.p0(i64 2, ptr %18) #15
  %74 = load ptr, ptr %6, align 8, !tbaa !33
  %75 = load i32, ptr %9, align 4, !tbaa !14
  %76 = call noundef zeroext i16 @_ZNK6icu_7713UnicodeString6charAtEi(ptr noundef nonnull align 8 dereferenceable(64) %74, i32 noundef %75)
  store i16 %76, ptr %18, align 2, !tbaa !35
  %77 = load i16, ptr %18, align 2, !tbaa !35
  %78 = zext i16 %77 to i32
  %79 = icmp eq i32 %78, 43
  br i1 %79, label %80, label %81

80:                                               ; preds = %73
  store i32 1, ptr %17, align 4, !tbaa !14
  br label %88

81:                                               ; preds = %73
  %82 = load i16, ptr %18, align 2, !tbaa !35
  %83 = zext i16 %82 to i32
  %84 = icmp eq i32 %83, 45
  br i1 %84, label %85, label %86

85:                                               ; preds = %81
  store i32 -1, ptr %17, align 4, !tbaa !14
  br label %87

86:                                               ; preds = %81
  store i32 2, ptr %14, align 4
  br label %133

87:                                               ; preds = %85
  br label %88

88:                                               ; preds = %87, %80
  %89 = load i32, ptr %9, align 4, !tbaa !14
  %90 = add nsw i32 %89, 1
  store i32 %90, ptr %9, align 4, !tbaa !14
  call void @llvm.lifetime.start.p0(i64 4, ptr %19) #15
  store i32 0, ptr %19, align 4, !tbaa !14
  call void @llvm.lifetime.start.p0(i64 4, ptr %20) #15
  %91 = load ptr, ptr %6, align 8, !tbaa !33
  %92 = load i32, ptr %9, align 4, !tbaa !14
  %93 = call noundef i32 @_ZNK6icu_7714TimeZoneFormat24parseDefaultOffsetFieldsERKNS_13UnicodeStringEiDsRi(ptr noundef nonnull align 8 dereferenceable(1024) %23, ptr noundef nonnull align 8 dereferenceable(64) %91, i32 noundef %92, i16 noundef zeroext 58, ptr noundef nonnull align 4 dereferenceable(4) %19)
  store i32 %93, ptr %20, align 4, !tbaa !14
  %94 = load i32, ptr %19, align 4, !tbaa !14
  %95 = load ptr, ptr %6, align 8, !tbaa !33
  %96 = call noundef i32 @_ZNK6icu_7713UnicodeString6lengthEv(ptr noundef nonnull align 8 dereferenceable(64) %95)
  %97 = load i32, ptr %9, align 4, !tbaa !14
  %98 = sub nsw i32 %96, %97
  %99 = icmp eq i32 %94, %98
  br i1 %99, label %100, label %107

100:                                              ; preds = %88
  %101 = load i32, ptr %20, align 4, !tbaa !14
  %102 = load i32, ptr %17, align 4, !tbaa !14
  %103 = mul nsw i32 %101, %102
  store i32 %103, ptr %10, align 4, !tbaa !14
  %104 = load i32, ptr %19, align 4, !tbaa !14
  %105 = load i32, ptr %9, align 4, !tbaa !14
  %106 = add nsw i32 %105, %104
  store i32 %106, ptr %9, align 4, !tbaa !14
  br label %129

107:                                              ; preds = %88
  call void @llvm.lifetime.start.p0(i64 4, ptr %21) #15
  store i32 0, ptr %21, align 4, !tbaa !14
  call void @llvm.lifetime.start.p0(i64 4, ptr %22) #15
  %108 = load ptr, ptr %6, align 8, !tbaa !33
  %109 = load i32, ptr %9, align 4, !tbaa !14
  %110 = call noundef i32 @_ZNK6icu_7714TimeZoneFormat25parseAbuttingOffsetFieldsERKNS_13UnicodeStringEiRi(ptr noundef nonnull align 8 dereferenceable(1024) %23, ptr noundef nonnull align 8 dereferenceable(64) %108, i32 noundef %109, ptr noundef nonnull align 4 dereferenceable(4) %21)
  store i32 %110, ptr %22, align 4, !tbaa !14
  %111 = load i32, ptr %19, align 4, !tbaa !14
  %112 = load i32, ptr %21, align 4, !tbaa !14
  %113 = icmp sgt i32 %111, %112
  br i1 %113, label %114, label %121

114:                                              ; preds = %107
  %115 = load i32, ptr %20, align 4, !tbaa !14
  %116 = load i32, ptr %17, align 4, !tbaa !14
  %117 = mul nsw i32 %115, %116
  store i32 %117, ptr %10, align 4, !tbaa !14
  %118 = load i32, ptr %19, align 4, !tbaa !14
  %119 = load i32, ptr %9, align 4, !tbaa !14
  %120 = add nsw i32 %119, %118
  store i32 %120, ptr %9, align 4, !tbaa !14
  br label %128

121:                                              ; preds = %107
  %122 = load i32, ptr %22, align 4, !tbaa !14
  %123 = load i32, ptr %17, align 4, !tbaa !14
  %124 = mul nsw i32 %122, %123
  store i32 %124, ptr %10, align 4, !tbaa !14
  %125 = load i32, ptr %21, align 4, !tbaa !14
  %126 = load i32, ptr %9, align 4, !tbaa !14
  %127 = add nsw i32 %126, %125
  store i32 %127, ptr %9, align 4, !tbaa !14
  br label %128

128:                                              ; preds = %121, %114
  call void @llvm.lifetime.end.p0(i64 4, ptr %22) #15
  call void @llvm.lifetime.end.p0(i64 4, ptr %21) #15
  br label %129

129:                                              ; preds = %128, %100
  %130 = load i32, ptr %9, align 4, !tbaa !14
  %131 = load i32, ptr %7, align 4, !tbaa !14
  %132 = sub nsw i32 %130, %131
  store i32 %132, ptr %11, align 4, !tbaa !14
  call void @llvm.lifetime.end.p0(i64 4, ptr %20) #15
  call void @llvm.lifetime.end.p0(i64 4, ptr %19) #15
  store i32 0, ptr %14, align 4
  br label %133

133:                                              ; preds = %129, %86
  call void @llvm.lifetime.end.p0(i64 2, ptr %18) #15
  call void @llvm.lifetime.end.p0(i64 4, ptr %17) #15
  br label %134

134:                                              ; preds = %133, %72, %62
  call void @llvm.lifetime.end.p0(i64 4, ptr %12) #15
  %135 = load i32, ptr %14, align 4
  switch i32 %135, label %142 [
    i32 0, label %136
    i32 2, label %138
  ]

136:                                              ; preds = %134
  br label %137

137:                                              ; preds = %136
  br label %138

138:                                              ; preds = %137, %134
  %139 = load i32, ptr %11, align 4, !tbaa !14
  %140 = load ptr, ptr %8, align 8, !tbaa !20
  store i32 %139, ptr %140, align 4, !tbaa !14
  %141 = load i32, ptr %10, align 4, !tbaa !14
  store i32 1, ptr %14, align 4
  call void @llvm.lifetime.end.p0(i64 4, ptr %11) #15
  call void @llvm.lifetime.end.p0(i64 4, ptr %10) #15
  call void @llvm.lifetime.end.p0(i64 4, ptr %9) #15
  ret i32 %141

142:                                              ; preds = %134
  unreachable
}