; Function Attrs: mustprogress uwtable
define noundef i32 @_ZNK6icu_7714TimeZoneFormat30parseOffsetDefaultLocalizedGMTERKNS_13UnicodeStringEiRi(ptr noundef nonnull readonly align 8 captures(none) dereferenceable(1024) %0, ptr noundef nonnull align 8 dereferenceable(64) %1, i32 noundef %2, ptr noundef nonnull writeonly align 4 captures(none) dereferenceable(4) %3) local_unnamed_addr #1 align 2 {
  %5 = alloca i32, align 4
  %6 = alloca i32, align 4
  br label %9

7:                                                ; preds = %9
  %indvars.iv.next = add nuw nsw i64 %indvars.iv, 1
  %8 = getelementptr inbounds nuw [4 x [4 x i16]], ptr @_ZN6icu_77L15ALT_GMT_STRINGSE, i64 0, i64 %indvars.iv.next
  %exitcond = icmp eq i64 %indvars.iv.next, 3
  br i1 %exitcond, label %_ZNK6icu_7713UnicodeString6charAtEi.exit.thread, label %9, !llvm.loop !97

9:                                                ; preds = %4, %7
  %indvars.iv = phi i64 [ 0, %4 ], [ %indvars.iv.next, %7 ]
  %10 = phi ptr [ @_ZN6icu_77L15ALT_GMT_STRINGSE, %4 ], [ %8, %7 ]
  %11 = tail call i32 @u_strlen_77(ptr noundef nonnull %10)
  %12 = tail call noundef signext i8 @_ZNK6icu_7713UnicodeString13doCaseCompareEiiPKDsiij(ptr noundef nonnull align 8 dereferenceable(64) %1, i32 noundef %2, i32 noundef %11, ptr noundef nonnull %10, i32 noundef 0, i32 noundef %11, i32 noundef 0)
  %.not55 = icmp eq i8 %12, 0
  br i1 %.not55, label %13, label %7

13:                                               ; preds = %9
  %14 = icmp eq i32 %11, 0
  br i1 %14, label %_ZNK6icu_7713UnicodeString6charAtEi.exit.thread, label %15

15:                                               ; preds = %13
  %16 = add nsw i32 %11, %2
  %17 = add nsw i32 %16, 1
  %18 = getelementptr inbounds nuw i8, ptr %1, i64 8
  %19 = load i16, ptr %18, align 8, !tbaa !23
  %20 = icmp slt i16 %19, 0
  %21 = ashr i16 %19, 5
  %22 = sext i16 %21 to i32
  %23 = getelementptr inbounds nuw i8, ptr %1, i64 12
  %24 = load i32, ptr %23, align 4
  %25 = select i1 %20, i32 %24, i32 %22
  %.not56 = icmp slt i32 %17, %25
  %26 = icmp ult i32 %16, %25
  %or.cond = and i1 %.not56, %26
  br i1 %or.cond, label %_ZNK6icu_7713UnicodeString6charAtEi.exit, label %_ZNK6icu_7713UnicodeString6charAtEi.exit.thread

_ZNK6icu_7713UnicodeString6charAtEi.exit:         ; preds = %15
  %27 = and i16 %19, 2
  %.not.i.i.i = icmp eq i16 %27, 0
  %28 = getelementptr inbounds nuw i8, ptr %1, i64 10
  %29 = getelementptr inbounds nuw i8, ptr %1, i64 24
  %30 = load ptr, ptr %29, align 8
  %31 = select i1 %.not.i.i.i, ptr %30, ptr %28
  %32 = sext i32 %16 to i64
  %33 = getelementptr inbounds i16, ptr %31, i64 %32
  %34 = load i16, ptr %33, align 2, !tbaa !24
  switch i16 %34, label %_ZNK6icu_7713UnicodeString6charAtEi.exit.thread [
    i16 43, label %36
    i16 45, label %35
  ]

35:                                               ; preds = %_ZNK6icu_7713UnicodeString6charAtEi.exit
  br label %36

36:                                               ; preds = %_ZNK6icu_7713UnicodeString6charAtEi.exit, %35
  %.045 = phi i32 [ -1, %35 ], [ 1, %_ZNK6icu_7713UnicodeString6charAtEi.exit ]
  call void @llvm.lifetime.start.p0(i64 4, ptr nonnull %5) #22
  %37 = call noundef i32 @_ZNK6icu_7714TimeZoneFormat24parseDefaultOffsetFieldsERKNS_13UnicodeStringEiDsRi(ptr noundef nonnull align 8 dereferenceable(1024) %0, ptr noundef nonnull align 8 dereferenceable(64) %1, i32 noundef %17, i16 noundef zeroext 58, ptr noundef nonnull align 4 dereferenceable(4) %5)
  %38 = load i32, ptr %5, align 4, !tbaa !12
  %39 = load i16, ptr %18, align 8, !tbaa !23
  %40 = icmp slt i16 %39, 0
  %41 = ashr i16 %39, 5
  %42 = sext i16 %41 to i32
  %43 = load i32, ptr %23, align 4
  %44 = select i1 %40, i32 %43, i32 %42
  %45 = sub nsw i32 %44, %17
  %46 = icmp eq i32 %38, %45
  br i1 %46, label %51, label %47

47:                                               ; preds = %36
  call void @llvm.lifetime.start.p0(i64 4, ptr nonnull %6) #22
  store i32 0, ptr %6, align 4, !tbaa !12
  %48 = call noundef i32 @_ZNK6icu_7714TimeZoneFormat25parseAbuttingOffsetFieldsERKNS_13UnicodeStringEiRi(ptr noundef nonnull align 8 dereferenceable(1024) %0, ptr noundef nonnull align 8 dereferenceable(64) %1, i32 noundef %17, ptr noundef nonnull align 4 dereferenceable(4) %6)
  %49 = load i32, ptr %6, align 4, !tbaa !12
  %50 = icmp sgt i32 %38, %49
  %. = select i1 %50, i32 %37, i32 %48
  %.60 = tail call i32 @llvm.smax.i32(i32 %38, i32 %49)
  call void @llvm.lifetime.end.p0(i64 4, ptr nonnull %6) #22
  br label %51

51:                                               ; preds = %36, %47
  %.pn58 = phi i32 [ %., %47 ], [ %37, %36 ]
  %.pn59 = phi i32 [ %.60, %47 ], [ %38, %36 ]
  %.2 = mul nsw i32 %.pn58, %.045
  %.0 = add i32 %11, 1
  %52 = add i32 %.0, %.pn59
  call void @llvm.lifetime.end.p0(i64 4, ptr nonnull %5) #22
  br label %_ZNK6icu_7713UnicodeString6charAtEi.exit.thread

_ZNK6icu_7713UnicodeString6charAtEi.exit.thread:  ; preds = %7, %51, %_ZNK6icu_7713UnicodeString6charAtEi.exit, %15, %13
  %.043 = phi i32 [ 0, %13 ], [ 0, %15 ], [ %52, %51 ], [ 0, %_ZNK6icu_7713UnicodeString6charAtEi.exit ], [ 0, %7 ]
  %.041 = phi i32 [ 0, %13 ], [ 0, %15 ], [ %.2, %51 ], [ 0, %_ZNK6icu_7713UnicodeString6charAtEi.exit ], [ 0, %7 ]
  store i32 %.043, ptr %3, align 4, !tbaa !12
  ret i32 %.041
}